target datalayout = "e-m:e-p270:32:32-p271:32:32-p272:64:64-i64:64-i128:128-f80:128-n8:16:32:64-S128"
target triple = "x86_64-pc-linux-gnu"

%struct.repository = type { ptr, ptr, ptr, ptr, ptr, %struct.strmap, %struct.strmap, %struct.repo_path_cache, ptr, ptr, ptr, ptr, %struct.repo_settings, ptr, ptr, ptr, ptr, ptr, ptr, i32, i32, i32, ptr, ptr, i32, i32, i8 }
%struct.strmap = type { %struct.hashmap, ptr, i8 }
%struct.hashmap = type { ptr, ptr, ptr, i32, i32, i32, i32, i8 }
%struct.repo_path_cache = type { ptr, ptr, ptr, ptr, ptr, ptr, ptr }
%struct.repo_settings = type { i32, i32, i32, i32, i32, i32, i32, i32, i32, i32, i32, i32, ptr, i32, i32, i32, i32, i32, i32, i32, i64, i64, i64 }
%struct.raw_object_store = type { ptr, ptr, ptr, i32, ptr, ptr, i8, %union.pthread_mutex_t, ptr, i8, ptr, ptr, %struct.list_head, %struct.anon, %struct.hashmap, i64, i8 }
%union.pthread_mutex_t = type { %struct.__pthread_mutex_s }
%struct.__pthread_mutex_s = type { i32, i32, i32, i32, i32, i16, i16, %struct.__pthread_internal_list }
%struct.__pthread_internal_list = type { ptr, ptr }
%struct.list_head = type { ptr, ptr }
%struct.anon = type { ptr, i32 }
%struct.replace_object = type { %struct.oidmap_entry, %struct.object_id }
%struct.oidmap_entry = type { %struct.hashmap_entry, %struct.object_id }
%struct.hashmap_entry = type { ptr, i32 }
%struct.object_id = type { [32 x i8], i32 }

@.str.1 = private unnamed_addr constant [25 x i8] c"bad replace ref name: %s\00", align 1
@.str.2 = private unnamed_addr constant [26 x i8] c"duplicate replace ref: %s\00", align 1

; Function Attrs: inlinehint nounwind uwtable
define internal void @oidcpy(ptr noundef %0, ptr noundef %1) #5 {
  %3 = alloca ptr, align 8
  %4 = alloca ptr, align 8
  store ptr %0, ptr %3, align 8, !tbaa !44
  store ptr %1, ptr %4, align 8, !tbaa !44
  %5 = load ptr, ptr %3, align 8, !tbaa !44
  %6 = getelementptr inbounds nuw %struct.object_id, ptr %5, i32 0, i32 0
  %7 = getelementptr inbounds [32 x i8], ptr %6, i64 0, i64 0
  %8 = load ptr, ptr %4, align 8, !tbaa !44
  %9 = getelementptr inbounds nuw %struct.object_id, ptr %8, i32 0, i32 0
  %10 = getelementptr inbounds [32 x i8], ptr %9, i64 0, i64 0
  call void @llvm.memcpy.p0.p0.i64(ptr align 4 %7, ptr align 4 %10, i64 32, i1 false)
  %11 = load ptr, ptr %4, align 8, !tbaa !44
  %12 = getelementptr inbounds nuw %struct.object_id, ptr %11, i32 0, i32 1
  %13 = load i32, ptr %12, align 4, !tbaa !56
  %14 = load ptr, ptr %3, align 8, !tbaa !44
  %15 = getelementptr inbounds nuw %struct.object_id, ptr %14, i32 0, i32 1
  store i32 %13, ptr %15, align 4, !tbaa !56
  ret void
}

; Function Attrs: nounwind uwtable
define internal i32 @register_replace_ref(ptr noundef %0, ptr noundef %1, ptr noundef %2, i32 noundef %3, ptr noundef %4) #0 {
  %6 = alloca i32, align 4
  %7 = alloca ptr, align 8
  %8 = alloca ptr, align 8
  %9 = alloca ptr, align 8
  %10 = alloca i32, align 4
  %11 = alloca ptr, align 8
  %12 = alloca ptr, align 8
  %13 = alloca ptr, align 8
  %14 = alloca ptr, align 8
  %15 = alloca ptr, align 8
  %16 = alloca i32, align 4
  store ptr %0, ptr %7, align 8, !tbaa !43
  store ptr %1, ptr %8, align 8, !tbaa !43
  store ptr %2, ptr %9, align 8, !tbaa !44
  store i32 %3, ptr %10, align 4, !tbaa !46
  store ptr %4, ptr %11, align 8, !tbaa !47
  call void @llvm.lifetime.start.p0(i64 8, ptr %12) #8
  %17 = load ptr, ptr %11, align 8, !tbaa !47
  store ptr %17, ptr %12, align 8, !tbaa !4
  call void @llvm.lifetime.start.p0(i64 8, ptr %13) #8
  %18 = load ptr, ptr %7, align 8, !tbaa !43
  %19 = call ptr @strrchr(ptr noundef %18, i32 noundef 47) #9
  store ptr %19, ptr %13, align 8, !tbaa !43
  call void @llvm.lifetime.start.p0(i64 8, ptr %14) #8
  %20 = load ptr, ptr %13, align 8, !tbaa !43
  %21 = icmp ne ptr %20, null
  br i1 %21, label %22, label %25

22:                                               ; preds = %5
  %23 = load ptr, ptr %13, align 8, !tbaa !43
  %24 = getelementptr inbounds i8, ptr %23, i64 1
  br label %27

25:                                               ; preds = %5
  %26 = load ptr, ptr %7, align 8, !tbaa !43
  br label %27

27:                                               ; preds = %25, %22
  %28 = phi ptr [ %24, %22 ], [ %26, %25 ]
  store ptr %28, ptr %14, align 8, !tbaa !43
  call void @llvm.lifetime.start.p0(i64 8, ptr %15) #8
  %29 = call ptr @xmalloc(i64 noundef 96)
  store ptr %29, ptr %15, align 8, !tbaa !48
  %30 = load ptr, ptr %14, align 8, !tbaa !43
  %31 = load ptr, ptr %15, align 8, !tbaa !48
  %32 = getelementptr inbounds nuw %struct.replace_object, ptr %31, i32 0, i32 0
  %33 = getelementptr inbounds nuw %struct.oidmap_entry, ptr %32, i32 0, i32 1
  %34 = load ptr, ptr %12, align 8, !tbaa !4
  %35 = getelementptr inbounds nuw %struct.repository, ptr %34, i32 0, i32 17
  %36 = load ptr, ptr %35, align 8, !tbaa !50
  %37 = call i32 @get_oid_hex_algop(ptr noundef %30, ptr noundef %33, ptr noundef %36)
  %38 = icmp ne i32 %37, 0
  br i1 %38, label %39, label %43

39:                                               ; preds = %27
  %40 = load ptr, ptr %15, align 8, !tbaa !48
  call void @free(ptr noundef %40) #8
  %41 = call ptr @_(ptr noundef @.str.1)
  %42 = load ptr, ptr %7, align 8, !tbaa !43
  call void (ptr, ...) @warning(ptr noundef %41, ptr noundef %42)
  store i32 0, ptr %6, align 4
  store i32 1, ptr %16, align 4
  br label %59

43:                                               ; preds = %27
  %44 = load ptr, ptr %15, align 8, !tbaa !48
  %45 = getelementptr inbounds nuw %struct.replace_object, ptr %44, i32 0, i32 1
  %46 = load ptr, ptr %9, align 8, !tbaa !44
  call void @oidcpy(ptr noundef %45, ptr noundef %46)
  %47 = load ptr, ptr %12, align 8, !tbaa !4
  %48 = getelementptr inbounds nuw %struct.repository, ptr %47, i32 0, i32 2
  %49 = load ptr, ptr %48, align 8, !tbaa !9
  %50 = getelementptr inbounds nuw %struct.raw_object_store, ptr %49, i32 0, i32 5
  %51 = load ptr, ptr %50, align 8, !tbaa !30
  %52 = load ptr, ptr %15, align 8, !tbaa !48
  %53 = call ptr @oidmap_put(ptr noundef %51, ptr noundef %52)
  %54 = icmp ne ptr %53, null
  br i1 %54, label %55, label %58

55:                                               ; preds = %43
  %56 = call ptr @_(ptr noundef @.str.2)
  %57 = load ptr, ptr %7, align 8, !tbaa !43
  call void (ptr, ...) @die(ptr noundef %56, ptr noundef %57) #10
  unreachable

58:                                               ; preds = %43
  store i32 0, ptr %6, align 4
  store i32 1, ptr %16, align 4
  br label %59

59:                                               ; preds = %58, %39
  call void @llvm.lifetime.end.p0(i64 8, ptr %15) #8
  call void @llvm.lifetime.end.p0(i64 8, ptr %14) #8
  call void @llvm.lifetime.end.p0(i64 8, ptr %13) #8
  call void @llvm.lifetime.end.p0(i64 8, ptr %12) #8
  %60 = load i32, ptr %6, align 4
  ret i32 %60
}