; Function Attrs: nounwind uwtable
define internal noundef i32 @register_replace_ref(ptr noundef %0, ptr readnone captures(none) %1, ptr noundef readonly captures(none) %2, i32 %3, ptr noundef readonly captures(none) %4) #0 {
  %6 = tail call ptr @strrchr(ptr noundef nonnull dereferenceable(1) %0, i32 noundef 47) #10
  %.not = icmp eq ptr %6, null
  %7 = getelementptr inbounds nuw i8, ptr %6, i64 1
  %8 = select i1 %.not, ptr %0, ptr %7
  %9 = tail call ptr @xmalloc(i64 noundef 96) #9
  %10 = getelementptr inbounds nuw i8, ptr %9, i64 16
  %11 = getelementptr inbounds nuw i8, ptr %4, i64 400
  %12 = load ptr, ptr %11, align 8, !tbaa !41
  %13 = tail call i32 @get_oid_hex_algop(ptr noundef nonnull %8, ptr noundef nonnull %10, ptr noundef %12) #9
  %.not15 = icmp eq i32 %13, 0
  br i1 %.not15, label %18, label %14

14:                                               ; preds = %5
  tail call void @free(ptr noundef nonnull %9) #9
  %15 = load i32, ptr @git_gettext_enabled, align 4, !tbaa !42
  %.not4.i = icmp eq i32 %15, 0
  br i1 %.not4.i, label %_.exit, label %16

16:                                               ; preds = %14
  %17 = tail call ptr @dcgettext(ptr noundef null, ptr noundef nonnull @.str.1, i32 noundef 5) #9
  br label %_.exit

_.exit:                                           ; preds = %14, %16
  %.0.i = phi ptr [ %17, %16 ], [ @.str.1, %14 ]
  tail call void (ptr, ...) @warning(ptr noundef %.0.i, ptr noundef nonnull %0) #9
  br label %30

18:                                               ; preds = %5
  %19 = getelementptr inbounds nuw i8, ptr %9, i64 56
  tail call void @llvm.memcpy.p0.p0.i64(ptr noundef nonnull align 4 dereferenceable(32) %19, ptr noundef nonnull readonly align 4 dereferenceable(32) %2, i64 32, i1 false)
  %20 = getelementptr inbounds nuw i8, ptr %2, i64 32
  %21 = load i32, ptr %20, align 4, !tbaa !43
  %22 = getelementptr inbounds nuw i8, ptr %9, i64 88
  store i32 %21, ptr %22, align 4, !tbaa !43
  %23 = getelementptr inbounds nuw i8, ptr %4, i64 16
  %24 = load ptr, ptr %23, align 8, !tbaa !4
  %25 = getelementptr inbounds nuw i8, ptr %24, i64 40
  %26 = load ptr, ptr %25, align 8, !tbaa !28
  %27 = tail call ptr @oidmap_put(ptr noundef %26, ptr noundef nonnull %9) #9
  %.not16 = icmp eq ptr %27, null
  br i1 %.not16, label %30, label %28

28:                                               ; preds = %18
  %29 = tail call fastcc ptr @_(ptr noundef nonnull @.str.2)
  tail call void (ptr, ...) @die(ptr noundef %29, ptr noundef nonnull %0) #11
  unreachable

30:                                               ; preds = %18, %_.exit
  ret i32 0
}